; Function Attrs: nounwind uwtable
define dso_local range(i32 0, 33) i32 @bf_set(ptr noundef captures(address) %0, ptr noundef readonly captures(address) %1) local_unnamed_addr #2 {
  %3 = icmp eq ptr %0, %1
  br i1 %3, label %memcpy_no_ub.exit, label %4

4:                                                ; preds = %2
  %5 = getelementptr inbounds nuw i8, ptr %1, i64 24
  %6 = load i64, ptr %5, align 8, !tbaa !32
  %7 = getelementptr inbounds nuw i8, ptr %0, i64 24
  %8 = load i64, ptr %7, align 8, !tbaa !32
  %.not.i = icmp eq i64 %6, %8
  br i1 %.not.i, label %27, label %9

9:                                                ; preds = %4
  %10 = load ptr, ptr %0, align 8, !tbaa !28
  %11 = getelementptr inbounds nuw i8, ptr %0, i64 32
  %12 = load ptr, ptr %11, align 8, !tbaa !29
  %13 = shl i64 %6, 3
  %.val.i = load ptr, ptr %10, align 8, !tbaa !19
  %14 = getelementptr i8, ptr %10, i64 8
  %.val13.i = load ptr, ptr %14, align 8, !tbaa !7
  %15 = tail call ptr %.val13.i(ptr noundef %.val.i, ptr noundef %12, i64 noundef %13) #21
  %16 = icmp eq ptr %15, null
  %17 = icmp ne i64 %6, 0
  %or.cond.i = and i1 %17, %16
  br i1 %or.cond.i, label %bf_resize.exit, label %18

18:                                               ; preds = %9
  store ptr %15, ptr %11, align 8, !tbaa !29
  store i64 %6, ptr %7, align 8, !tbaa !32
  %.pre = load i64, ptr %5, align 8, !tbaa !32
  br label %27

bf_resize.exit:                                   ; preds = %9
  %19 = load i64, ptr %7, align 8, !tbaa !32
  %.not.i.i = icmp eq i64 %19, 0
  br i1 %.not.i.i, label %bf_set_nan.exit, label %20

20:                                               ; preds = %bf_resize.exit
  %21 = load ptr, ptr %0, align 8, !tbaa !28
  %22 = load ptr, ptr %11, align 8, !tbaa !29
  %.val.i.i = load ptr, ptr %21, align 8, !tbaa !19
  %23 = getelementptr i8, ptr %21, i64 8
  %.val13.i.i = load ptr, ptr %23, align 8, !tbaa !7
  %24 = tail call ptr %.val13.i.i(ptr noundef %.val.i.i, ptr noundef %22, i64 noundef 0) #21
  store ptr %24, ptr %11, align 8, !tbaa !29
  store i64 0, ptr %7, align 8, !tbaa !32
  br label %bf_set_nan.exit

bf_set_nan.exit:                                  ; preds = %bf_resize.exit, %20
  %25 = getelementptr inbounds nuw i8, ptr %0, i64 16
  store i64 9223372036854775807, ptr %25, align 8, !tbaa !31
  %26 = getelementptr inbounds nuw i8, ptr %0, i64 8
  store i32 0, ptr %26, align 8, !tbaa !30
  br label %memcpy_no_ub.exit

27:                                               ; preds = %18, %4
  %28 = phi i64 [ %.pre, %18 ], [ %6, %4 ]
  %29 = getelementptr inbounds nuw i8, ptr %1, i64 8
  %30 = load i32, ptr %29, align 8, !tbaa !30
  %31 = getelementptr inbounds nuw i8, ptr %0, i64 8
  store i32 %30, ptr %31, align 8, !tbaa !30
  %32 = getelementptr inbounds nuw i8, ptr %1, i64 16
  %33 = load i64, ptr %32, align 8, !tbaa !31
  %34 = getelementptr inbounds nuw i8, ptr %0, i64 16
  store i64 %33, ptr %34, align 8, !tbaa !31
  %35 = shl i64 %28, 3
  %.not.i14 = icmp eq i64 %35, 0
  br i1 %.not.i14, label %memcpy_no_ub.exit, label %36

36:                                               ; preds = %27
  %37 = getelementptr inbounds nuw i8, ptr %1, i64 32
  %38 = load ptr, ptr %37, align 8, !tbaa !29
  %39 = getelementptr inbounds nuw i8, ptr %0, i64 32
  %40 = load ptr, ptr %39, align 8, !tbaa !29
  tail call void @llvm.memcpy.p0.p0.i64(ptr align 1 %40, ptr readonly align 1 %38, i64 %35, i1 false)
  br label %memcpy_no_ub.exit

memcpy_no_ub.exit:                                ; preds = %36, %27, %2, %bf_set_nan.exit
  %.0 = phi i32 [ 32, %bf_set_nan.exit ], [ 0, %2 ], [ 0, %27 ], [ 0, %36 ]
  ret i32 %.0
}